target datalayout = "e-m:e-p270:32:32-p271:32:32-p272:64:64-i64:64-i128:128-f80:128-n8:16:32:64-S128"
target triple = "x86_64-pc-linux-gnu"

@.str.43 = private unnamed_addr constant [1 x i32] zeroinitializer, align 4

; Function Attrs: nounwind uwtable
define internal ptr @utf8_to_wchar_t(ptr noundef %0) #0 {
  %2 = alloca ptr, align 8
  %3 = alloca ptr, align 8
  %4 = alloca ptr, align 8
  %5 = alloca i64, align 8
  %6 = alloca i32, align 4
  store ptr %0, ptr %3, align 8
  call void @llvm.lifetime.start.p0(i64 8, ptr %4) #10
  store ptr null, ptr %4, align 8
  %7 = load ptr, ptr %3, align 8
  %8 = icmp ne ptr %7, null
  br i1 %8, label %9, label %35

9:                                                ; preds = %1
  call void @llvm.lifetime.start.p0(i64 8, ptr %5) #10
  %10 = load ptr, ptr %3, align 8
  %11 = call i64 @mbstowcs(ptr noundef null, ptr noundef %10, i64 noundef 0) #10
  store i64 %11, ptr %5, align 8
  %12 = load i64, ptr %5, align 8
  %13 = icmp eq i64 -1, %12
  br i1 %13, label %14, label %16

14:                                               ; preds = %9
  %15 = call noalias ptr @wcsdup(ptr noundef @.str.43) #10
  store ptr %15, ptr %2, align 8
  store i32 1, ptr %6, align 4
  br label %32

16:                                               ; preds = %9
  %17 = load i64, ptr %5, align 8
  %18 = add i64 %17, 1
  %19 = call noalias ptr @calloc(i64 noundef %18, i64 noundef 4) #12
  store ptr %19, ptr %4, align 8
  %20 = load ptr, ptr %4, align 8
  %21 = icmp eq ptr %20, null
  br i1 %21, label %22, label %23

22:                                               ; preds = %16
  store ptr null, ptr %2, align 8
  store i32 1, ptr %6, align 4
  br label %32

23:                                               ; preds = %16
  %24 = load ptr, ptr %4, align 8
  %25 = load ptr, ptr %3, align 8
  %26 = load i64, ptr %5, align 8
  %27 = add i64 %26, 1
  %28 = call i64 @mbstowcs(ptr noundef %24, ptr noundef %25, i64 noundef %27) #10
  %29 = load ptr, ptr %4, align 8
  %30 = load i64, ptr %5, align 8
  %31 = getelementptr inbounds nuw i32, ptr %29, i64 %30
  store i32 0, ptr %31, align 4
  store i32 0, ptr %6, align 4
  br label %32

32:                                               ; preds = %23, %22, %14
  call void @llvm.lifetime.end.p0(i64 8, ptr %5) #10
  %33 = load i32, ptr %6, align 4
  switch i32 %33, label %37 [
    i32 0, label %34
  ]

34:                                               ; preds = %32
  br label %35

35:                                               ; preds = %34, %1
  %36 = load ptr, ptr %4, align 8
  store ptr %36, ptr %2, align 8
  store i32 1, ptr %6, align 4
  br label %37

37:                                               ; preds = %35, %32
  call void @llvm.lifetime.end.p0(i64 8, ptr %4) #10
  %38 = load ptr, ptr %2, align 8
  ret ptr %38
}