; Function Attrs: nounwind uwtable
define internal fastcc ptr @utf8_to_wchar_t(ptr noundef %0) unnamed_addr #1 {
  %.not = icmp eq ptr %0, null
  br i1 %.not, label %.thread, label %2

2:                                                ; preds = %1
  %3 = tail call i64 @mbstowcs(ptr noundef null, ptr noundef nonnull %0, i64 noundef 0) #22
  %4 = icmp eq i64 %3, -1
  br i1 %4, label %5, label %7

5:                                                ; preds = %2
  %6 = tail call noalias ptr @wcsdup(ptr noundef nonnull @.str.43) #22
  br label %.thread

7:                                                ; preds = %2
  %8 = add nuw i64 %3, 1
  %9 = tail call noalias ptr @calloc(i64 noundef %8, i64 noundef 4) #24
  %10 = icmp eq ptr %9, null
  br i1 %10, label %.thread, label %11

11:                                               ; preds = %7
  %12 = tail call i64 @mbstowcs(ptr noundef nonnull %9, ptr noundef nonnull %0, i64 noundef %8) #22
  %13 = getelementptr inbounds nuw i32, ptr %9, i64 %3
  store i32 0, ptr %13, align 4
  br label %.thread

.thread:                                          ; preds = %7, %5, %11, %1
  %.1 = phi ptr [ null, %1 ], [ %9, %11 ], [ null, %7 ], [ %6, %5 ]
  ret ptr %.1
}